; Function Attrs: nounwind uwtable
define dso_local range(i64 -32767, 32768) i64 @int2mod(ptr noundef readonly captures(none) %0) local_unnamed_addr #0 {
  %2 = getelementptr inbounds nuw i8, ptr %0, i64 48
  %3 = load i64, ptr %2, align 8
  %4 = trunc i64 %3 to i16
  switch i16 %4, label %9 [
    i16 0, label %5
    i16 -1, label %18
  ], !prof !15

5:                                                ; preds = %1
  %6 = tail call zeroext i1 @errstart_cold(i32 noundef 21, ptr noundef null) #15
  tail call void @llvm.assume(i1 %6)
  %7 = tail call i32 @errcode(i32 noundef 33816706) #13
  %8 = tail call i32 (ptr, ...) @errmsg(ptr noundef nonnull @.str.8) #13
  tail call void @errfinish(ptr noundef nonnull @.str.2, i32 noundef 1167, ptr noundef nonnull @__func__.int2mod) #13
  unreachable

9:                                                ; preds = %1
  %10 = sext i16 %4 to i32
  %11 = getelementptr inbounds nuw i8, ptr %0, i64 32
  %12 = load i64, ptr %11, align 8
  %13 = trunc i64 %12 to i32
  %sext = shl i32 %13, 16
  %14 = ashr exact i32 %sext, 16
  %15 = srem i32 %14, %10
  %16 = zext i32 %15 to i64
  %sext7 = shl i64 %16, 48
  %17 = ashr exact i64 %sext7, 48
  br label %18

18:                                               ; preds = %1, %9
  %.0 = phi i64 [ %17, %9 ], [ 0, %1 ]
  ret i64 %.0
}